; Function Attrs: mustprogress nofree norecurse nosync nounwind willreturn memory(argmem: read) uwtable
define hidden noundef zeroext i1 @_ZN4cvc58internal6theory2uf8TheoryUF20needsCheckLastEffortEv(ptr nocapture noundef nonnull readonly align 8 dereferenceable(1736) %this) unnamed_addr #9 align 2 {
entry:
  %d_thss = getelementptr inbounds i8, ptr %this, i64 408
  %0 = load ptr, ptr %d_thss, align 8
  %cmp.i.i = icmp ne ptr %0, null
  %d_csolver = getelementptr inbounds i8, ptr %this, i64 432
  %1 = load ptr, ptr %d_csolver, align 8
  %cmp.i.i1 = icmp ne ptr %1, null
  %2 = select i1 %cmp.i.i, i1 true, i1 %cmp.i.i1
  ret i1 %2
}